; Function Attrs: mustprogress uwtable
define hidden void @_ZN16fpa2bv_converter11mk_float_eqEP9func_decljPKP4exprR7obj_refIS2_11ast_managerE(ptr noundef nonnull align 8 dereferenceable(496) %0, ptr noundef readonly captures(none) %1, i32 noundef %2, ptr noundef readonly captures(none) %3, ptr noundef nonnull align 8 dereferenceable(16) %4) local_unnamed_addr #3 align 2 personality ptr @__gxx_personality_v0 {
  %6 = alloca %class.obj_ref, align 8
  %7 = alloca %class.obj_ref, align 8
  call void @llvm.lifetime.start.p0(i64 16, ptr nonnull %6) #23
  %8 = getelementptr inbounds nuw i8, ptr %0, i64 8
  %9 = load ptr, ptr %8, align 8, !tbaa !130
  %10 = getelementptr inbounds nuw i8, ptr %6, i64 8
  store ptr %9, ptr %10, align 8, !tbaa !6
  call void @llvm.lifetime.start.p0(i64 16, ptr nonnull %7) #23
  %11 = getelementptr inbounds nuw i8, ptr %7, i64 8
  store ptr %9, ptr %11, align 8, !tbaa !6
  %12 = load ptr, ptr %3, align 8, !tbaa !122
  %.not.i = icmp eq ptr %12, null
  br i1 %.not.i, label %16, label %_ZN11ast_manager7inc_refEP3ast.exit.i

_ZN11ast_manager7inc_refEP3ast.exit.i:            ; preds = %5
  %13 = getelementptr inbounds nuw i8, ptr %12, i64 8
  %14 = load i32, ptr %13, align 4, !tbaa !125
  %15 = add i32 %14, 1
  store i32 %15, ptr %13, align 4, !tbaa !125
  br label %16

16:                                               ; preds = %_ZN11ast_manager7inc_refEP3ast.exit.i, %5
  store ptr %12, ptr %6, align 8, !tbaa !164
  %17 = getelementptr inbounds nuw i8, ptr %3, i64 8
  %18 = load ptr, ptr %17, align 8, !tbaa !122
  %.not.i6 = icmp eq ptr %18, null
  br i1 %.not.i6, label %22, label %_ZN11ast_manager7inc_refEP3ast.exit.i7

_ZN11ast_manager7inc_refEP3ast.exit.i7:           ; preds = %16
  %19 = getelementptr inbounds nuw i8, ptr %18, i64 8
  %20 = load i32, ptr %19, align 4, !tbaa !125
  %21 = add i32 %20, 1
  store i32 %21, ptr %19, align 4, !tbaa !125
  br label %22

22:                                               ; preds = %16, %_ZN11ast_manager7inc_refEP3ast.exit.i7
  store ptr %18, ptr %7, align 8, !tbaa !164
  invoke void @_ZN16fpa2bv_converter11mk_float_eqEP4sortR7obj_refI4expr11ast_managerES6_S6_(ptr noundef nonnull align 8 dereferenceable(496) %0, ptr poison, ptr noundef nonnull align 8 dereferenceable(16) %6, ptr noundef nonnull align 8 dereferenceable(16) %7, ptr noundef nonnull align 8 dereferenceable(16) %4)
          to label %23 unwind label %42

23:                                               ; preds = %22
  br i1 %.not.i6, label %_ZN7obj_refI4expr11ast_managerED2Ev.exit, label %24

24:                                               ; preds = %23
  %25 = getelementptr inbounds nuw i8, ptr %18, i64 8
  %26 = load i32, ptr %25, align 4, !tbaa !125
  %27 = add i32 %26, -1
  store i32 %27, ptr %25, align 4, !tbaa !125
  %28 = icmp eq i32 %27, 0
  br i1 %28, label %29, label %_ZN7obj_refI4expr11ast_managerED2Ev.exit

29:                                               ; preds = %24
  invoke void @_ZN11ast_manager11delete_nodeEP3ast(ptr noundef nonnull align 8 dereferenceable(976) %9, ptr noundef nonnull %18)
          to label %_ZN7obj_refI4expr11ast_managerED2Ev.exit unwind label %30

30:                                               ; preds = %29
  %31 = landingpad { ptr, i32 }
          catch ptr null
  %32 = extractvalue { ptr, i32 } %31, 0
  tail call void @__clang_call_terminate(ptr %32) #24
  unreachable

_ZN7obj_refI4expr11ast_managerED2Ev.exit:         ; preds = %23, %24, %29
  call void @llvm.lifetime.end.p0(i64 16, ptr nonnull %7) #23
  br i1 %.not.i, label %_ZN7obj_refI4expr11ast_managerED2Ev.exit12, label %33

33:                                               ; preds = %_ZN7obj_refI4expr11ast_managerED2Ev.exit
  %34 = getelementptr inbounds nuw i8, ptr %12, i64 8
  %35 = load i32, ptr %34, align 4, !tbaa !125
  %36 = add i32 %35, -1
  store i32 %36, ptr %34, align 4, !tbaa !125
  %37 = icmp eq i32 %36, 0
  br i1 %37, label %38, label %_ZN7obj_refI4expr11ast_managerED2Ev.exit12

38:                                               ; preds = %33
  invoke void @_ZN11ast_manager11delete_nodeEP3ast(ptr noundef nonnull align 8 dereferenceable(976) %9, ptr noundef nonnull %12)
          to label %_ZN7obj_refI4expr11ast_managerED2Ev.exit12 unwind label %39

39:                                               ; preds = %38
  %40 = landingpad { ptr, i32 }
          catch ptr null
  %41 = extractvalue { ptr, i32 } %40, 0
  tail call void @__clang_call_terminate(ptr %41) #24
  unreachable

_ZN7obj_refI4expr11ast_managerED2Ev.exit12:       ; preds = %_ZN7obj_refI4expr11ast_managerED2Ev.exit, %33, %38
  call void @llvm.lifetime.end.p0(i64 16, ptr nonnull %6) #23
  ret void

42:                                               ; preds = %22
  %43 = landingpad { ptr, i32 }
          cleanup
  call void @_ZN7obj_refI4expr11ast_managerED2Ev(ptr noundef nonnull align 8 dereferenceable(16) %7) #23
  call void @llvm.lifetime.end.p0(i64 16, ptr nonnull %7) #23
  call void @_ZN7obj_refI4expr11ast_managerED2Ev(ptr noundef nonnull align 8 dereferenceable(16) %6) #23
  call void @llvm.lifetime.end.p0(i64 16, ptr nonnull %6) #23
  resume { ptr, i32 } %43
}